; Function Attrs: nounwind uwtable
define ptr @l_Lean_Server_RequestM_findCmdDataAtPos(ptr noundef %0, ptr noundef %1, i8 noundef zeroext %2) local_unnamed_addr #1 {
  %4 = ptrtoint ptr %1 to i64
  %5 = and i64 %4, 1
  %.not = icmp eq i64 %5, 0
  br i1 %.not, label %6, label %lean_inc.exit15

6:                                                ; preds = %3
  %.val.i = load i32, ptr %1, align 4, !tbaa !4
  %7 = icmp sgt i32 %.val.i, 0
  br i1 %7, label %8, label %10, !prof !11

8:                                                ; preds = %6
  %9 = add nuw i32 %.val.i, 1
  store i32 %9, ptr %1, align 4, !tbaa !4
  br label %lean_inc.exit15

10:                                               ; preds = %6
  %.not.i = icmp eq i32 %.val.i, 0
  br i1 %.not.i, label %lean_inc.exit15, label %11

11:                                               ; preds = %10
  tail call void @lean_inc_ref_cold(ptr noundef nonnull %1) #6
  br label %lean_inc.exit15

lean_inc.exit15:                                  ; preds = %11, %10, %8, %3
  %12 = ptrtoint ptr %0 to i64
  %13 = and i64 %12, 1
  %.not19 = icmp eq i64 %13, 0
  br i1 %.not19, label %14, label %lean_inc.exit

14:                                               ; preds = %lean_inc.exit15
  %.val.i16 = load i32, ptr %0, align 4, !tbaa !4
  %15 = icmp sgt i32 %.val.i16, 0
  br i1 %15, label %16, label %18, !prof !11

16:                                               ; preds = %14
  %17 = add nuw i32 %.val.i16, 1
  store i32 %17, ptr %0, align 4, !tbaa !4
  br label %lean_inc.exit

18:                                               ; preds = %14
  %.not.i17 = icmp eq i32 %.val.i16, 0
  br i1 %.not.i17, label %lean_inc.exit, label %19

19:                                               ; preds = %18
  tail call void @lean_inc_ref_cold(ptr noundef nonnull %0) #6
  br label %lean_inc.exit

lean_inc.exit:                                    ; preds = %19, %18, %16, %lean_inc.exit15
  %20 = tail call ptr @l_Lean_Server_RequestM_findCmdParsedSnap(ptr noundef %0, ptr noundef %1)
  tail call void @lean_inc_heartbeat() #6
  %21 = tail call noalias ptr @mi_malloc_small(i64 noundef 48) #6
  %22 = icmp eq ptr %21, null
  br i1 %22, label %23, label %lean_alloc_closure.exit

23:                                               ; preds = %lean_inc.exit
  tail call void @lean_internal_panic_out_of_memory() #7
  unreachable

lean_alloc_closure.exit:                          ; preds = %lean_inc.exit
  %24 = zext i8 %2 to i64
  %25 = shl nuw nsw i64 %24, 1
  %26 = or disjoint i64 %25, 1
  %27 = inttoptr i64 %26 to ptr
  %28 = getelementptr inbounds nuw i8, ptr %21, i64 4
  store i32 1, ptr %21, align 4, !tbaa !4
  store i32 -184549328, ptr %28, align 4
  %29 = getelementptr inbounds nuw i8, ptr %21, i64 8
  store ptr @l_Lean_Server_RequestM_findCmdDataAtPos___lambda__3___boxed, ptr %29, align 8, !tbaa !9
  %30 = getelementptr inbounds nuw i8, ptr %21, i64 16
  store i16 4, ptr %30, align 8, !tbaa !15
  %31 = getelementptr inbounds nuw i8, ptr %21, i64 18
  store i16 3, ptr %31, align 2, !tbaa !15
  %32 = getelementptr inbounds nuw i8, ptr %21, i64 24
  store ptr %0, ptr %32, align 8, !tbaa !9
  %33 = getelementptr inbounds nuw i8, ptr %21, i64 32
  store ptr %1, ptr %33, align 8, !tbaa !9
  %34 = getelementptr inbounds nuw i8, ptr %21, i64 40
  store ptr %27, ptr %34, align 8, !tbaa !9
  %35 = load ptr, ptr @l_Task_Priority_default, align 8, !tbaa !9
  %36 = ptrtoint ptr %35 to i64
  %37 = lshr i64 %36, 1
  %38 = trunc i64 %37 to i32
  %39 = tail call ptr @lean_task_bind_core(ptr noundef %20, ptr noundef nonnull %21, i32 noundef %38, i1 noundef zeroext true, i1 noundef zeroext false) #6
  ret ptr %39
}